target datalayout = "e-m:e-p270:32:32-p271:32:32-p272:64:64-i64:64-i128:128-f80:128-n8:16:32:64-S128"
target triple = "x86_64-pc-linux-gnu"

%"class.cvc5::internal::NodeTemplate" = type { ptr }
%"class.cvc5::internal::theory::strings::InferInfo" = type { %"class.cvc5::internal::theory::TheoryInference.base", ptr, i8, %"class.cvc5::internal::NodeTemplate", %"class.std::vector", %"class.std::vector", %"class.std::map", %"class.std::map.3", [2 x %"class.cvc5::internal::NodeTemplate"] }
%"class.cvc5::internal::theory::TheoryInference.base" = type <{ ptr, i32 }>
%"class.std::vector" = type { %"struct.std::_Vector_base" }
%"struct.std::_Vector_base" = type { %"struct.std::_Vector_base<cvc5::internal::NodeTemplate<true>, std::allocator<cvc5::internal::NodeTemplate<true>>>::_Vector_impl" }
%"struct.std::_Vector_base<cvc5::internal::NodeTemplate<true>, std::allocator<cvc5::internal::NodeTemplate<true>>>::_Vector_impl" = type { %"struct.std::_Vector_base<cvc5::internal::NodeTemplate<true>, std::allocator<cvc5::internal::NodeTemplate<true>>>::_Vector_impl_data" }
%"struct.std::_Vector_base<cvc5::internal::NodeTemplate<true>, std::allocator<cvc5::internal::NodeTemplate<true>>>::_Vector_impl_data" = type { ptr, ptr, ptr }
%"class.std::map" = type { %"class.std::_Rb_tree" }
%"class.std::_Rb_tree" = type { %"struct.std::_Rb_tree<cvc5::internal::theory::strings::LengthStatus, std::pair<const cvc5::internal::theory::strings::LengthStatus, std::vector<cvc5::internal::NodeTemplate<true>>>, std::_Select1st<std::pair<const cvc5::internal::theory::strings::LengthStatus, std::vector<cvc5::internal::NodeTemplate<true>>>>, std::less<cvc5::internal::theory::strings::LengthStatus>>::_Rb_tree_impl" }
%"struct.std::_Rb_tree<cvc5::internal::theory::strings::LengthStatus, std::pair<const cvc5::internal::theory::strings::LengthStatus, std::vector<cvc5::internal::NodeTemplate<true>>>, std::_Select1st<std::pair<const cvc5::internal::theory::strings::LengthStatus, std::vector<cvc5::internal::NodeTemplate<true>>>>, std::less<cvc5::internal::theory::strings::LengthStatus>>::_Rb_tree_impl" = type { [8 x i8], %"struct.std::_Rb_tree_header" }
%"struct.std::_Rb_tree_header" = type { %"struct.std::_Rb_tree_node_base", i64 }
%"struct.std::_Rb_tree_node_base" = type { i32, ptr, ptr, ptr }
%"class.std::map.3" = type { %"class.std::_Rb_tree.4" }
%"class.std::_Rb_tree.4" = type { %"struct.std::_Rb_tree<cvc5::internal::NodeTemplate<true>, std::pair<const cvc5::internal::NodeTemplate<true>, bool>, std::_Select1st<std::pair<const cvc5::internal::NodeTemplate<true>, bool>>, std::less<cvc5::internal::NodeTemplate<true>>>::_Rb_tree_impl" }
%"struct.std::_Rb_tree<cvc5::internal::NodeTemplate<true>, std::pair<const cvc5::internal::NodeTemplate<true>, bool>, std::_Select1st<std::pair<const cvc5::internal::NodeTemplate<true>, bool>>, std::less<cvc5::internal::NodeTemplate<true>>>::_Rb_tree_impl" = type { [8 x i8], %"struct.std::_Rb_tree_header" }
%"class.cvc5::internal::TrustNode" = type { i32, %"class.cvc5::internal::NodeTemplate", ptr }

; Function Attrs: mustprogress uwtable
define hidden void @_ZN4cvc58internal6theory7strings9InferInfo12processLemmaERNS1_13LemmaPropertyE(ptr dead_on_unwind noalias writable sret(%"class.cvc5::internal::TrustNode") align 8 %0, ptr noundef nonnull align 8 dereferenceable(200) %1, ptr noundef nonnull align 4 dereferenceable(4) %2) unnamed_addr #4 align 2 {
  %4 = alloca ptr, align 8
  %5 = alloca ptr, align 8
  %6 = alloca ptr, align 8
  store ptr %0, ptr %4, align 8
  store ptr %1, ptr %5, align 8, !tbaa !3
  store ptr %2, ptr %6, align 8, !tbaa !53
  %7 = load ptr, ptr %5, align 8
  %8 = getelementptr inbounds nuw %"class.cvc5::internal::theory::strings::InferInfo", ptr %7, i32 0, i32 1
  %9 = load ptr, ptr %8, align 8, !tbaa !12
  %10 = load ptr, ptr %6, align 8, !tbaa !53
  %11 = load ptr, ptr %9, align 8, !tbaa !10
  %12 = getelementptr inbounds ptr, ptr %11, i64 2
  %13 = load ptr, ptr %12, align 8
  call void %13(ptr dead_on_unwind writable sret(%"class.cvc5::internal::TrustNode") align 8 %0, ptr noundef nonnull align 8 dereferenceable(8) %9, ptr noundef nonnull align 8 dereferenceable(200) %7, ptr noundef nonnull align 4 dereferenceable(4) %10)
  ret void
}